; Function Attrs: nounwind uwtable
define hidden range(i32 -2147483647, -2147483648) i32 @uv__udp_try_send2(ptr noundef readonly captures(none) %0, i32 noundef %1, ptr noundef readonly captures(none) %2, ptr noundef readonly captures(none) %3, ptr noundef readonly captures(none) %4) local_unnamed_addr #0 {
  %6 = getelementptr inbounds nuw i8, ptr %0, i64 176
  %7 = load i32, ptr %6, align 8
  %8 = icmp eq i32 %7, -1
  br i1 %8, label %11, label %9

9:                                                ; preds = %5
  %10 = tail call fastcc i32 @uv__udp_sendmsgv(i32 noundef %7, i32 noundef %1, ptr noundef %2, ptr noundef %3, ptr noundef %4)
  br label %11

11:                                               ; preds = %5, %9
  %.0 = phi i32 [ %10, %9 ], [ -22, %5 ]
  ret i32 %.0
}